target datalayout = "e-m:e-p270:32:32-p271:32:32-p272:64:64-i64:64-i128:128-f80:128-n8:16:32:64-S128"
target triple = "x86_64-unknown-linux-gnu"

@_ZN7rocksdb23PartitionedIndexBuilderC1EPKNS_21InternalKeyComparatorERKNS_22BlockBasedTableOptionsEbmb = unnamed_addr alias void (ptr, ptr, ptr, i1, i64, i1), ptr @_ZN7rocksdb23PartitionedIndexBuilderC2EPKNS_21InternalKeyComparatorERKNS_22BlockBasedTableOptionsEbmb

; Function Attrs: mustprogress uwtable
define noundef ptr @_ZN7rocksdb23PartitionedIndexBuilder18CreateIndexBuilderEPKNS_21InternalKeyComparatorEbRKNS_22BlockBasedTableOptionsEmb(ptr noundef %comparator, i1 noundef zeroext %use_value_delta_encoding, ptr noundef nonnull align 8 dereferenceable(248) %table_opt, i64 noundef %ts_sz, i1 noundef zeroext %persist_user_defined_timestamps) #0 align 2 personality ptr @__gxx_personality_v0 {
entry:
  %comparator.addr = alloca ptr, align 8
  %use_value_delta_encoding.addr = alloca i8, align 1
  %table_opt.addr = alloca ptr, align 8
  %ts_sz.addr = alloca i64, align 8
  %persist_user_defined_timestamps.addr = alloca i8, align 1
  %exn.slot = alloca ptr, align 8
  %ehselector.slot = alloca i32, align 4
  store ptr %comparator, ptr %comparator.addr, align 8
  %frombool = zext i1 %use_value_delta_encoding to i8
  store i8 %frombool, ptr %use_value_delta_encoding.addr, align 1
  store ptr %table_opt, ptr %table_opt.addr, align 8
  store i64 %ts_sz, ptr %ts_sz.addr, align 8
  %frombool1 = zext i1 %persist_user_defined_timestamps to i8
  store i8 %frombool1, ptr %persist_user_defined_timestamps.addr, align 1
  %call = call noalias noundef nonnull ptr @_Znwm(i64 noundef 520) #17
  %0 = load ptr, ptr %comparator.addr, align 8
  %1 = load ptr, ptr %table_opt.addr, align 8
  %2 = load i8, ptr %use_value_delta_encoding.addr, align 1
  %tobool = trunc i8 %2 to i1
  %3 = load i64, ptr %ts_sz.addr, align 8
  %4 = load i8, ptr %persist_user_defined_timestamps.addr, align 1
  %tobool2 = trunc i8 %4 to i1
  invoke void @_ZN7rocksdb23PartitionedIndexBuilderC1EPKNS_21InternalKeyComparatorERKNS_22BlockBasedTableOptionsEbmb(ptr noundef nonnull align 8 dereferenceable(520) %call, ptr noundef %0, ptr noundef nonnull align 8 dereferenceable(248) %1, i1 noundef zeroext %tobool, i64 noundef %3, i1 noundef zeroext %tobool2)
          to label %invoke.cont unwind label %lpad

invoke.cont:                                      ; preds = %entry
  ret ptr %call

lpad:                                             ; preds = %entry
  %5 = landingpad { ptr, i32 }
          cleanup
  %6 = extractvalue { ptr, i32 } %5, 0
  store ptr %6, ptr %exn.slot, align 8
  %7 = extractvalue { ptr, i32 } %5, 1
  store i32 %7, ptr %ehselector.slot, align 4
  call void @_ZdlPv(ptr noundef %call) #18
  br label %eh.resume

eh.resume:                                        ; preds = %lpad
  %exn = load ptr, ptr %exn.slot, align 8
  %sel = load i32, ptr %ehselector.slot, align 4
  %lpad.val = insertvalue { ptr, i32 } poison, ptr %exn, 0
  %lpad.val3 = insertvalue { ptr, i32 } %lpad.val, i32 %sel, 1
  resume { ptr, i32 } %lpad.val3
}